; Function Attrs: nounwind sspstrong uwtable
define internal i64 @ossl_ssl_session_get_id(i64 noundef %0) #0 {
  %2 = alloca i32, align 4
  call void @llvm.lifetime.start.p0(i64 4, ptr nonnull %2) #4
  store i32 0, ptr %2, align 4, !tbaa !19
  %3 = tail call ptr @rb_check_typeddata(i64 noundef %0, ptr noundef nonnull @ossl_ssl_session_type) #4
  %.not = icmp eq ptr %3, null
  br i1 %.not, label %4, label %6

4:                                                ; preds = %1
  %5 = load i64, ptr @rb_eRuntimeError, align 8, !tbaa !6
  tail call void (i64, ptr, ...) @ossl_raise(i64 noundef %5, ptr noundef nonnull @.str.18) #5
  unreachable

6:                                                ; preds = %1
  %7 = call ptr @SSL_SESSION_get_id(ptr noundef nonnull %3, ptr noundef nonnull %2) #4
  %8 = load i32, ptr %2, align 4, !tbaa !19
  %9 = zext i32 %8 to i64
  %10 = call i64 @rb_str_new(ptr noundef %7, i64 noundef %9) #4
  call void @llvm.lifetime.end.p0(i64 4, ptr nonnull %2) #4
  ret i64 %10
}